target datalayout = "e-m:e-p270:32:32-p271:32:32-p272:64:64-i64:64-i128:128-f80:128-n8:16:32:64-S128"
target triple = "x86_64-pc-linux-gnu"

%struct.thpool_ = type { ptr, i32, i32, %union.pthread_mutex_t, %union.pthread_cond_t, %struct.jobqueue }
%union.pthread_mutex_t = type { %struct.__pthread_mutex_s }
%struct.__pthread_mutex_s = type { i32, i32, i32, i32, i32, i16, i16, %struct.__pthread_internal_list }
%struct.__pthread_internal_list = type { ptr, ptr }
%union.pthread_cond_t = type { %struct.__pthread_cond_s }
%struct.__pthread_cond_s = type { %union.__atomic_wide_counter, %union.__atomic_wide_counter, [2 x i32], [2 x i32], i32, i32, [2 x i32] }
%union.__atomic_wide_counter = type { i64 }
%struct.jobqueue = type { %union.pthread_mutex_t, ptr, ptr, ptr, i32 }
%struct.thread = type { i32, i64, ptr }
%struct.job = type { ptr, ptr, ptr }
%struct.bsem = type { %union.pthread_mutex_t, %union.pthread_cond_t, i32 }
%struct.sigaction = type { %union.anon, %struct.__sigset_t, i32, ptr }
%union.anon = type { ptr }
%struct.__sigset_t = type { [16 x i64] }

@threads_keepalive = internal global i32 0, align 4
@stderr = external global ptr, align 8
@.str.5 = private unnamed_addr constant [15 x i8] c"thread-pool-%d\00", align 1
@.str.6 = private unnamed_addr constant [35 x i8] c"thread_do(): cannot handle SIGUSR1\00", align 1

; Function Attrs: nounwind uwtable
define internal void @bsem_wait(ptr noundef %0) #0 {
  %2 = alloca ptr, align 8
  store ptr %0, ptr %2, align 8
  %3 = load ptr, ptr %2, align 8
  %4 = getelementptr inbounds %struct.bsem, ptr %3, i32 0, i32 0
  %5 = call i32 @pthread_mutex_lock(ptr noundef %4) #8
  br label %6

6:                                                ; preds = %11, %1
  %7 = load ptr, ptr %2, align 8
  %8 = getelementptr inbounds %struct.bsem, ptr %7, i32 0, i32 2
  %9 = load i32, ptr %8, align 8
  %10 = icmp ne i32 %9, 1
  br i1 %10, label %11, label %17

11:                                               ; preds = %6
  %12 = load ptr, ptr %2, align 8
  %13 = getelementptr inbounds %struct.bsem, ptr %12, i32 0, i32 1
  %14 = load ptr, ptr %2, align 8
  %15 = getelementptr inbounds %struct.bsem, ptr %14, i32 0, i32 0
  %16 = call i32 @pthread_cond_wait(ptr noundef %13, ptr noundef %15)
  br label %6

17:                                               ; preds = %6
  %18 = load ptr, ptr %2, align 8
  %19 = getelementptr inbounds %struct.bsem, ptr %18, i32 0, i32 2
  store i32 0, ptr %19, align 8
  %20 = load ptr, ptr %2, align 8
  %21 = getelementptr inbounds %struct.bsem, ptr %20, i32 0, i32 0
  %22 = call i32 @pthread_mutex_unlock(ptr noundef %21) #8
  ret void
}

; Function Attrs: nounwind uwtable
define internal ptr @thread_do(ptr noundef %0) #0 {
  %2 = alloca ptr, align 8
  %3 = alloca [32 x i8], align 16
  %4 = alloca ptr, align 8
  %5 = alloca %struct.sigaction, align 8
  %6 = alloca ptr, align 8
  %7 = alloca ptr, align 8
  %8 = alloca ptr, align 8
  store ptr %0, ptr %2, align 8
  call void @llvm.memset.p0.i64(ptr align 16 %3, i8 0, i64 32, i1 false)
  %9 = getelementptr inbounds [32 x i8], ptr %3, i64 0, i64 0
  %10 = load ptr, ptr %2, align 8
  %11 = getelementptr inbounds %struct.thread, ptr %10, i32 0, i32 0
  %12 = load i32, ptr %11, align 8
  %13 = call i32 (ptr, i64, ptr, ...) @snprintf(ptr noundef %9, i64 noundef 32, ptr noundef @.str.5, i32 noundef %12) #8
  %14 = getelementptr inbounds [32 x i8], ptr %3, i64 0, i64 0
  %15 = call i32 (i32, ...) @prctl(i32 noundef 15, ptr noundef %14) #8
  %16 = load ptr, ptr %2, align 8
  %17 = getelementptr inbounds %struct.thread, ptr %16, i32 0, i32 2
  %18 = load ptr, ptr %17, align 8
  store ptr %18, ptr %4, align 8
  %19 = getelementptr inbounds %struct.sigaction, ptr %5, i32 0, i32 1
  %20 = call i32 @sigemptyset(ptr noundef %19) #8
  %21 = getelementptr inbounds %struct.sigaction, ptr %5, i32 0, i32 2
  store i32 0, ptr %21, align 8
  %22 = getelementptr inbounds %struct.sigaction, ptr %5, i32 0, i32 0
  store ptr @thread_hold, ptr %22, align 8
  %23 = call i32 @sigaction(i32 noundef 10, ptr noundef %5, ptr noundef null) #8
  %24 = icmp eq i32 %23, -1
  br i1 %24, label %25, label %28

25:                                               ; preds = %1
  %26 = load ptr, ptr @stderr, align 8
  %27 = call i32 (ptr, ptr, ...) @fprintf(ptr noundef %26, ptr noundef @.str.6) #8
  br label %28

28:                                               ; preds = %25, %1
  %29 = load ptr, ptr %4, align 8
  %30 = getelementptr inbounds %struct.thpool_, ptr %29, i32 0, i32 3
  %31 = call i32 @pthread_mutex_lock(ptr noundef %30) #8
  %32 = load ptr, ptr %4, align 8
  %33 = getelementptr inbounds %struct.thpool_, ptr %32, i32 0, i32 1
  %34 = load volatile i32, ptr %33, align 8
  %35 = add nsw i32 %34, 1
  store volatile i32 %35, ptr %33, align 8
  %36 = load ptr, ptr %4, align 8
  %37 = getelementptr inbounds %struct.thpool_, ptr %36, i32 0, i32 3
  %38 = call i32 @pthread_mutex_unlock(ptr noundef %37) #8
  br label %39

39:                                               ; preds = %95, %28
  %40 = load volatile i32, ptr @threads_keepalive, align 4
  %41 = icmp ne i32 %40, 0
  br i1 %41, label %42, label %96

42:                                               ; preds = %39
  %43 = load ptr, ptr %4, align 8
  %44 = getelementptr inbounds %struct.thpool_, ptr %43, i32 0, i32 5
  %45 = getelementptr inbounds %struct.jobqueue, ptr %44, i32 0, i32 3
  %46 = load ptr, ptr %45, align 8
  call void @bsem_wait(ptr noundef %46)
  %47 = load volatile i32, ptr @threads_keepalive, align 4
  %48 = icmp ne i32 %47, 0
  br i1 %48, label %49, label %95

49:                                               ; preds = %42
  %50 = load ptr, ptr %4, align 8
  %51 = getelementptr inbounds %struct.thpool_, ptr %50, i32 0, i32 3
  %52 = call i32 @pthread_mutex_lock(ptr noundef %51) #8
  %53 = load ptr, ptr %4, align 8
  %54 = getelementptr inbounds %struct.thpool_, ptr %53, i32 0, i32 2
  %55 = load volatile i32, ptr %54, align 4
  %56 = add nsw i32 %55, 1
  store volatile i32 %56, ptr %54, align 4
  %57 = load ptr, ptr %4, align 8
  %58 = getelementptr inbounds %struct.thpool_, ptr %57, i32 0, i32 3
  %59 = call i32 @pthread_mutex_unlock(ptr noundef %58) #8
  %60 = load ptr, ptr %4, align 8
  %61 = getelementptr inbounds %struct.thpool_, ptr %60, i32 0, i32 5
  %62 = call ptr @jobqueue_pull(ptr noundef %61)
  store ptr %62, ptr %8, align 8
  %63 = load ptr, ptr %8, align 8
  %64 = icmp ne ptr %63, null
  br i1 %64, label %65, label %75

65:                                               ; preds = %49
  %66 = load ptr, ptr %8, align 8
  %67 = getelementptr inbounds %struct.job, ptr %66, i32 0, i32 1
  %68 = load ptr, ptr %67, align 8
  store ptr %68, ptr %6, align 8
  %69 = load ptr, ptr %8, align 8
  %70 = getelementptr inbounds %struct.job, ptr %69, i32 0, i32 2
  %71 = load ptr, ptr %70, align 8
  store ptr %71, ptr %7, align 8
  %72 = load ptr, ptr %6, align 8
  %73 = load ptr, ptr %7, align 8
  call void %72(ptr noundef %73)
  %74 = load ptr, ptr %8, align 8
  call void @free(ptr noundef %74) #8
  br label %75

75:                                               ; preds = %65, %49
  %76 = load ptr, ptr %4, align 8
  %77 = getelementptr inbounds %struct.thpool_, ptr %76, i32 0, i32 3
  %78 = call i32 @pthread_mutex_lock(ptr noundef %77) #8
  %79 = load ptr, ptr %4, align 8
  %80 = getelementptr inbounds %struct.thpool_, ptr %79, i32 0, i32 2
  %81 = load volatile i32, ptr %80, align 4
  %82 = add nsw i32 %81, -1
  store volatile i32 %82, ptr %80, align 4
  %83 = load ptr, ptr %4, align 8
  %84 = getelementptr inbounds %struct.thpool_, ptr %83, i32 0, i32 2
  %85 = load volatile i32, ptr %84, align 4
  %86 = icmp ne i32 %85, 0
  br i1 %86, label %91, label %87

87:                                               ; preds = %75
  %88 = load ptr, ptr %4, align 8
  %89 = getelementptr inbounds %struct.thpool_, ptr %88, i32 0, i32 4
  %90 = call i32 @pthread_cond_signal(ptr noundef %89) #8
  br label %91

91:                                               ; preds = %87, %75
  %92 = load ptr, ptr %4, align 8
  %93 = getelementptr inbounds %struct.thpool_, ptr %92, i32 0, i32 3
  %94 = call i32 @pthread_mutex_unlock(ptr noundef %93) #8
  br label %95

95:                                               ; preds = %91, %42
  br label %39

96:                                               ; preds = %39
  %97 = load ptr, ptr %4, align 8
  %98 = getelementptr inbounds %struct.thpool_, ptr %97, i32 0, i32 3
  %99 = call i32 @pthread_mutex_lock(ptr noundef %98) #8
  %100 = load ptr, ptr %4, align 8
  %101 = getelementptr inbounds %struct.thpool_, ptr %100, i32 0, i32 1
  %102 = load volatile i32, ptr %101, align 8
  %103 = add nsw i32 %102, -1
  store volatile i32 %103, ptr %101, align 8
  %104 = load ptr, ptr %4, align 8
  %105 = getelementptr inbounds %struct.thpool_, ptr %104, i32 0, i32 3
  %106 = call i32 @pthread_mutex_unlock(ptr noundef %105) #8
  ret ptr null
}