; Function Attrs: nounwind uwtable
define internal noundef ptr @thread_do(ptr nocapture noundef readonly %0) #0 {
  %2 = alloca [32 x i8], align 16
  %3 = alloca %struct.sigaction, align 8
  call void @llvm.memset.p0.i64(ptr noundef nonnull align 16 dereferenceable(32) %2, i8 0, i64 32, i1 false)
  %4 = load i32, ptr %0, align 8
  %5 = call i32 (ptr, i64, ptr, ...) @snprintf(ptr noundef nonnull dereferenceable(1) %2, i64 noundef 32, ptr noundef nonnull @.str.5, i32 noundef %4) #14
  %6 = call i32 (i32, ...) @prctl(i32 noundef 15, ptr noundef nonnull %2) #14
  %7 = getelementptr inbounds i8, ptr %0, i64 16
  %8 = load ptr, ptr %7, align 8
  %9 = getelementptr inbounds i8, ptr %3, i64 8
  %10 = call i32 @sigemptyset(ptr noundef nonnull %9) #14
  %11 = getelementptr inbounds i8, ptr %3, i64 136
  store i32 0, ptr %11, align 8
  store ptr @thread_hold, ptr %3, align 8
  %12 = call i32 @sigaction(i32 noundef 10, ptr noundef nonnull %3, ptr noundef null) #14
  %13 = icmp eq i32 %12, -1
  br i1 %13, label %14, label %17

14:                                               ; preds = %1
  %15 = load ptr, ptr @stderr, align 8
  %16 = call i64 @fwrite(ptr nonnull @.str.6, i64 34, i64 1, ptr %15) #13
  br label %17

17:                                               ; preds = %14, %1
  %18 = getelementptr inbounds i8, ptr %8, i64 16
  %19 = call i32 @pthread_mutex_lock(ptr noundef nonnull %18) #14
  %20 = getelementptr inbounds i8, ptr %8, i64 8
  %21 = load volatile i32, ptr %20, align 8
  %22 = add nsw i32 %21, 1
  store volatile i32 %22, ptr %20, align 8
  %23 = call i32 @pthread_mutex_unlock(ptr noundef nonnull %18) #14
  %24 = load volatile i32, ptr @threads_keepalive, align 4
  %.not27 = icmp eq i32 %24, 0
  br i1 %.not27, label %._crit_edge, label %.lr.ph

.lr.ph:                                           ; preds = %17
  %25 = getelementptr inbounds i8, ptr %8, i64 160
  %26 = getelementptr inbounds i8, ptr %8, i64 104
  %27 = getelementptr inbounds i8, ptr %8, i64 12
  %28 = getelementptr inbounds i8, ptr %8, i64 56
  br label %29

29:                                               ; preds = %.lr.ph, %60
  %30 = load ptr, ptr %25, align 8
  %31 = call i32 @pthread_mutex_lock(ptr noundef %30) #14
  %32 = getelementptr inbounds i8, ptr %30, i64 88
  %33 = load i32, ptr %32, align 8
  %.not6.i = icmp eq i32 %33, 1
  br i1 %.not6.i, label %bsem_wait.exit, label %.lr.ph.i

.lr.ph.i:                                         ; preds = %29
  %34 = getelementptr inbounds i8, ptr %30, i64 40
  br label %35

35:                                               ; preds = %35, %.lr.ph.i
  %36 = call i32 @pthread_cond_wait(ptr noundef nonnull %34, ptr noundef nonnull %30) #14
  %37 = load i32, ptr %32, align 8
  %.not.i = icmp eq i32 %37, 1
  br i1 %.not.i, label %bsem_wait.exit, label %35

bsem_wait.exit:                                   ; preds = %35, %29
  store i32 0, ptr %32, align 8
  %38 = call i32 @pthread_mutex_unlock(ptr noundef nonnull %30) #14
  %39 = load volatile i32, ptr @threads_keepalive, align 4
  %.not24 = icmp eq i32 %39, 0
  br i1 %.not24, label %60, label %40

40:                                               ; preds = %bsem_wait.exit
  %41 = call i32 @pthread_mutex_lock(ptr noundef nonnull %18) #14
  %42 = load volatile i32, ptr %27, align 4
  %43 = add nsw i32 %42, 1
  store volatile i32 %43, ptr %27, align 4
  %44 = call i32 @pthread_mutex_unlock(ptr noundef nonnull %18) #14
  %45 = call fastcc ptr @jobqueue_pull(ptr noundef nonnull %26)
  %.not25 = icmp eq ptr %45, null
  br i1 %.not25, label %51, label %46

46:                                               ; preds = %40
  %47 = getelementptr inbounds i8, ptr %45, i64 8
  %48 = load ptr, ptr %47, align 8
  %49 = getelementptr inbounds i8, ptr %45, i64 16
  %50 = load ptr, ptr %49, align 8
  call void %48(ptr noundef %50) #14
  call void @free(ptr noundef nonnull %45) #14
  br label %51

51:                                               ; preds = %46, %40
  %52 = call i32 @pthread_mutex_lock(ptr noundef nonnull %18) #14
  %53 = load volatile i32, ptr %27, align 4
  %54 = add nsw i32 %53, -1
  store volatile i32 %54, ptr %27, align 4
  %55 = load volatile i32, ptr %27, align 4
  %.not26 = icmp eq i32 %55, 0
  br i1 %.not26, label %56, label %58

56:                                               ; preds = %51
  %57 = call i32 @pthread_cond_signal(ptr noundef nonnull %28) #14
  br label %58

58:                                               ; preds = %56, %51
  %59 = call i32 @pthread_mutex_unlock(ptr noundef nonnull %18) #14
  br label %60

60:                                               ; preds = %58, %bsem_wait.exit
  %61 = load volatile i32, ptr @threads_keepalive, align 4
  %.not = icmp eq i32 %61, 0
  br i1 %.not, label %._crit_edge, label %29

._crit_edge:                                      ; preds = %60, %17
  %62 = call i32 @pthread_mutex_lock(ptr noundef nonnull %18) #14
  %63 = load volatile i32, ptr %20, align 8
  %64 = add nsw i32 %63, -1
  store volatile i32 %64, ptr %20, align 8
  %65 = call i32 @pthread_mutex_unlock(ptr noundef nonnull %18) #14
  ret ptr null
}